; Function Attrs: cold nounwind optsize uwtable
define i32 @ff_thread_init(ptr noundef %0) local_unnamed_addr #0 {
  tail call fastcc void @validate_thread_parameters(ptr noundef %0) #3
  %2 = getelementptr inbounds nuw i8, ptr %0, i64 664
  %3 = load i32, ptr %2, align 8, !tbaa !4
  %4 = and i32 %3, 2
  %.not = icmp eq i32 %4, 0
  br i1 %.not, label %7, label %5

5:                                                ; preds = %1
  %6 = tail call i32 @ff_slice_thread_init(ptr noundef nonnull %0) #4
  br label %11

7:                                                ; preds = %1
  %8 = and i32 %3, 1
  %.not5 = icmp eq i32 %8, 0
  br i1 %.not5, label %11, label %9

9:                                                ; preds = %7
  %10 = tail call i32 @ff_frame_thread_init(ptr noundef nonnull %0) #4
  br label %11

11:                                               ; preds = %7, %9, %5
  %.0 = phi i32 [ %6, %5 ], [ %10, %9 ], [ 0, %7 ]
  ret i32 %.0
}